target datalayout = "e-m:e-p270:32:32-p271:32:32-p272:64:64-i64:64-i128:128-f80:128-n8:16:32:64-S128"
target triple = "x86_64-pc-linux-gnu"

@.str.117 = private unnamed_addr constant [16 x i8] c"XCF_STATE_IMAGE\00", align 1
@.str.118 = private unnamed_addr constant [15 x i8] c"XCF_STATE_MAIN\00", align 1
@.str.119 = private unnamed_addr constant [16 x i8] c"XCF_STATE_LAYER\00", align 1
@.str.120 = private unnamed_addr constant [29 x i8] c"XCF_STATE_LAYER_INTERMEDIATE\00", align 1
@.str.121 = private unnamed_addr constant [18 x i8] c"XCF_STATE_CHANNEL\00", align 1
@.str.122 = private unnamed_addr constant [31 x i8] c"XCF_STATE_CHANNEL_INTERMEDIATE\00", align 1
@.str.123 = private unnamed_addr constant [15 x i8] c"XCF_STATE_DONE\00", align 1
@.str.124 = private unnamed_addr constant [16 x i8] c"XCF_STATE_ERROR\00", align 1

; Function Attrs: nounwind uwtable
define ptr @xcf_get_state_name(i32 noundef %0) #0 {
  %2 = alloca ptr, align 8
  %3 = alloca i32, align 4
  store i32 %0, ptr %3, align 4, !tbaa !3
  %4 = load i32, ptr %3, align 4, !tbaa !3
  switch i32 %4, label %13 [
    i32 0, label %5
    i32 1, label %6
    i32 2, label %7
    i32 3, label %8
    i32 4, label %9
    i32 5, label %10
    i32 6, label %11
    i32 7, label %12
  ]

5:                                                ; preds = %1
  store ptr @.str.117, ptr %2, align 8
  br label %14

6:                                                ; preds = %1
  store ptr @.str.118, ptr %2, align 8
  br label %14

7:                                                ; preds = %1
  store ptr @.str.119, ptr %2, align 8
  br label %14

8:                                                ; preds = %1
  store ptr @.str.120, ptr %2, align 8
  br label %14

9:                                                ; preds = %1
  store ptr @.str.121, ptr %2, align 8
  br label %14

10:                                               ; preds = %1
  store ptr @.str.122, ptr %2, align 8
  br label %14

11:                                               ; preds = %1
  store ptr @.str.123, ptr %2, align 8
  br label %14

12:                                               ; preds = %1
  store ptr @.str.124, ptr %2, align 8
  br label %14

13:                                               ; preds = %1
  store ptr null, ptr %2, align 8
  br label %14

14:                                               ; preds = %13, %12, %11, %10, %9, %8, %7, %6, %5
  %15 = load ptr, ptr %2, align 8
  ret ptr %15
}